; Function Attrs: mustprogress nounwind uwtable
define dso_local void @_ZN4node6crypto7NodeBIOD2Ev(ptr nocapture noundef nonnull align 8 dereferenceable(64) %this) unnamed_addr #3 align 2 {
entry:
  store ptr getelementptr inbounds ({ [10 x ptr] }, ptr @_ZTVN4node6crypto7NodeBIOE, i64 0, i32 0, i64 2), ptr %this, align 8
  %read_head_ = getelementptr inbounds i8, ptr %this, i64 48
  %0 = load ptr, ptr %read_head_, align 8
  %cmp = icmp eq ptr %0, null
  br i1 %cmp, label %cleanup, label %delete.notnull

delete.notnull:                                   ; preds = %entry, %delete.end
  %current.0 = phi ptr [ %1, %delete.end ], [ %0, %entry ]
  %next_ = getelementptr inbounds i8, ptr %current.0, i64 32
  %1 = load ptr, ptr %next_, align 8
  %data_.i = getelementptr inbounds i8, ptr %current.0, i64 40
  %2 = load ptr, ptr %data_.i, align 8
  %isnull.i = icmp eq ptr %2, null
  br i1 %isnull.i, label %delete.end.i, label %delete.notnull.i

delete.notnull.i:                                 ; preds = %delete.notnull
  tail call void @_ZdaPv(ptr noundef nonnull %2) #20
  br label %delete.end.i

delete.end.i:                                     ; preds = %delete.notnull.i, %delete.notnull
  %3 = load ptr, ptr %current.0, align 8
  %cmp.not.i = icmp eq ptr %3, null
  br i1 %cmp.not.i, label %delete.end, label %if.then.i

if.then.i:                                        ; preds = %delete.end.i
  %len_.i = getelementptr inbounds i8, ptr %current.0, i64 24
  %4 = load i64, ptr %len_.i, align 8
  %isolate_.i.i = getelementptr inbounds i8, ptr %3, i64 88
  %5 = load ptr, ptr %isolate_.i.i, align 8
  %sub.i = sub nsw i64 0, %4
  %call3.i = tail call noundef i64 @_ZN2v87Isolate37AdjustAmountOfExternalAllocatedMemoryEl(ptr noundef nonnull align 1 dereferenceable(1) %5, i64 noundef %sub.i) #16
  br label %delete.end

delete.end:                                       ; preds = %if.then.i, %delete.end.i
  tail call void @_ZdlPv(ptr noundef nonnull %current.0) #20
  %6 = load ptr, ptr %read_head_, align 8
  %cmp4.not = icmp eq ptr %1, %6
  br i1 %cmp4.not, label %do.end, label %delete.notnull, !llvm.loop !14

do.end:                                           ; preds = %delete.end
  tail call void @llvm.memset.p0.i64(ptr noundef nonnull align 8 dereferenceable(16) %read_head_, i8 0, i64 16, i1 false)
  br label %cleanup

cleanup:                                          ; preds = %entry, %do.end
  ret void
}